Certificate:
    Data:
        Version: 3 (0x2)
        Serial Number: 1 (0x1)
    Signature Algorithm: sha256WithRSAEncryption
        Issuer: C=JP, ST=Tokushima, L=Tokushima, O=TokushimaUniversity, CN=OriishiTakahiro
        Validity
            Not Before: Jun 26 09:02:35 2018 GMT
            Not After : Jun 26 09:02:35 2019 GMT
        Subject: C=JP, ST=Tokushima, O=TokushimaUniversity, CN=OriishiTakahiro
        Subject Public Key Info:
            Public Key Algorithm: rsaEncryption
                Public-Key: (2048 bit)
                Modulus:
                    00:d2:89:0d:42:c3:eb:f1:93:27:d1:b8:43:43:0b:
                    64:f5:2b:66:24:fa:fe:7f:28:a7:12:a3:24:e7:3b:
                    7d:01:13:3b:62:64:e0:f9:d2:b2:6f:df:d1:f6:8a:
                    8b:7f:a5:b8:93:e5:5c:dd:33:32:4f:43:89:b5:f8:
                    05:32:42:50:07:7d:e7:4b:f6:35:dd:af:fe:6b:71:
                    aa:ed:d6:e2:86:a1:a0:f1:d8:f8:71:46:04:6d:bc:
                    68:9e:0d:40:72:51:99:51:86:51:5c:d2:f2:c8:15:
                    d3:70:3d:38:a8:34:63:b6:6d:ef:dc:51:ef:2f:bd:
                    ee:e5:59:9a:40:3d:5a:15:1e:28:a5:03:9f:6a:93:
                    0f:02:58:f2:12:bb:42:14:39:ea:0f:07:dc:a0:87:
                    cc:d9:6f:09:0f:9a:b0:e1:c7:1a:e9:c0:a0:0c:d5:
                    d5:06:2f:c7:50:2f:cc:05:0d:52:4c:0e:69:e6:60:
                    ec:a6:4e:ac:e9:90:d5:f2:5e:6d:5e:50:5e:cb:05:
                    20:42:20:60:d5:ac:dd:1f:12:17:cf:9a:fd:1b:e1:
                    cf:4c:a6:f0:af:a5:e8:78:71:5b:21:20:f9:90:b1:
                    56:0d:c7:d9:73:77:d6:88:3b:04:70:b0:27:01:be:
                    c3:d2:45:50:9a:48:fb:1d:6e:2c:96:fd:a3:a9:cc:
                    f8:df
                Exponent: 65537 (0x10001)
        X509v3 extensions:
            X509v3 Basic Constraints: 
                CA:FALSE
            Netscape Comment: 
                OpenSSL Generated Certificate
            X509v3 Subject Key Identifier: 
                EB:29:8D:FB:40:E7:CB:CB:8D:0C:9E:3B:B3:6B:A6:66:35:F9:ED:86
            X509v3 Authority Key Identifier: 
                keyid:BB:94:A5:01:90:36:C7:78:E7:11:76:A9:2A:28:4E:84:7F:49:FC:E7

    Signature Algorithm: sha256WithRSAEncryption
         8d:42:9c:f8:6d:1e:ad:1b:2a:6f:b4:1a:0d:c0:fa:70:fc:7d:
         71:bf:d5:10:b0:bc:50:3b:b9:52:b7:50:54:be:32:d9:9d:48:
         29:29:5e:78:a3:ed:56:9b:91:16:79:a6:8b:c0:2f:3b:2e:2f:
         02:d1:0d:c2:c9:53:66:cd:6f:91:25:77:73:81:47:d1:ba:9f:
         ba:72:84:f4:d5:51:e2:4f:b0:0a:10:cc:70:b2:60:3c:8d:fc:
         09:a9:36:66:03:26:7b:f8:ad:08:af:44:42:d6:a7:0c:ab:ff:
         1c:79:f5:71:fa:be:cf:b0:39:1b:92:77:ca:1d:8d:d0:87:15:
         b2:6d:48:b2:4b:7d:69:ff:dd:05:df:9d:37:c8:07:fd:57:89:
         f1:fd:e2:5b:f9:d1:f0:c9:78:1b:40:e9:b3:5e:86:cb:d1:85:
         b3:1b:88:17:b1:b5:2f:2f:c1:63:a0:e6:9b:8f:c8:eb:4e:c2:
         2e:7a:78:ad:bd:c5:77:41:eb:c9:5c:4f:58:37:df:13:f1:07:
         ec:a9:a8:ac:9c:4e:12:7b:cf:f7:e3:66:dd:d7:34:36:9e:c8:
         1c:83:c0:bd:a5:1f:8d:20:ce:cf:e5:23:7c:d7:7b:05:69:e4:
         aa:22:ec:18:b0:3d:a8:da:48:7d:72:30:b2:ba:7b:13:1c:1d:
         4e:b2:82:3a
-----BEGIN CERTIFICATE-----
MIIDvDCCAqSgAwIBAgIBATANBgkqhkiG9w0BAQsFADBtMQswCQYDVQQGEwJKUDES
MBAGA1UECAwJVG9rdXNoaW1hMRIwEAYDVQQHDAlUb2t1c2hpbWExHDAaBgNVBAoM
E1Rva3VzaGltYVVuaXZlcnNpdHkxGDAWBgNVBAMMD09yaWlzaGlUYWthaGlybzAe
Fw0xODA2MjYwOTAyMzVaFw0xOTA2MjYwOTAyMzVaMFkxCzAJBgNVBAYTAkpQMRIw
EAYDVQQIDAlUb2t1c2hpbWExHDAaBgNVBAoME1Rva3VzaGltYVVuaXZlcnNpdHkx
GDAWBgNVBAMMD09yaWlzaGlUYWthaGlybzCCASIwDQYJKoZIhvcNAQEBBQADggEP
ADCCAQoCggEBANKJDULD6/GTJ9G4Q0MLZPUrZiT6/n8opxKjJOc7fQETO2Jk4PnS
sm/f0faKi3+luJPlXN0zMk9DibX4BTJCUAd950v2Nd2v/mtxqu3W4oahoPHY+HFG
BG28aJ4NQHJRmVGGUVzS8sgV03A9OKg0Y7Zt79xR7y+97uVZmkA9WhUeKKUDn2qT
DwJY8hK7QhQ56g8H3KCHzNlvCQ+asOHHGunAoAzV1QYvx1AvzAUNUkwOaeZg7KZO
rOmQ1fJebV5QXssFIEIgYNWs3R8SF8+a/Rvhz0ym8K+l6HhxWyEg+ZCxVg3H2XN3
1og7BHCwJwG+w9JFUJpI+x1uLJb9o6nM+N8CAwEAAaN7MHkwCQYDVR0TBAIwADAs
BglghkgBhvhCAQ0EHxYdT3BlblNTTCBHZW5lcmF0ZWQgQ2VydGlmaWNhdGUwHQYD
VR0OBBYEFOspjftA58vLjQyeO7NrpmY1+e2GMB8GA1UdIwQYMBaAFLuUpQGQNsd4
5xF2qSooToR/SfznMA0GCSqGSIb3DQEBCwUAA4IBAQCNQpz4bR6tGypvtBoNwPpw
/H1xv9UQsLxQO7lSt1BUvjLZnUgpKV54o+1Wm5EWeaaLwC87Li8C0Q3CyVNmzW+R
JXdzgUfRup+6coT01VHiT7AKEMxwsmA8jfwJqTZmAyZ7+K0Ir0RC1qcMq/8cefVx
+r7PsDkbknfKHY3QhxWybUiyS31p/90F3503yAf9V4nx/eJb+dHwyXgbQOmzXobL
0YWzG4gXsbUvL8FjoOabj8jrTsIuenitvcV3QevJXE9YN98T8QfsqaisnE4Se8/3
42bd1zQ2nsgcg8C9pR+NIM7P5SN813sFaeSqIuwYsD2o2kh9cjCyunsTHB1OsoI6
-----END CERTIFICATE-----
